target datalayout = "e-m:e-p270:32:32-p271:32:32-p272:64:64-i64:64-i128:128-f80:128-n8:16:32:64-S128"
target triple = "x86_64-pc-linux-gnu"

@.str = private unnamed_addr constant [124 x i8] c"generated/home/dtcxzyw/WorkSpace/Projects/compilers/llvm-opt-benchmark/bench/libquic/libquic/boringssl/crypto/rsa/padding.c\00", align 1

; Function Attrs: nounwind uwtable
define hidden i32 @RSA_padding_add_none(ptr noundef %0, i32 noundef %1, ptr noundef %2, i32 noundef %3) #0 {
  %5 = alloca i32, align 4
  %6 = alloca ptr, align 8
  %7 = alloca i32, align 4
  %8 = alloca ptr, align 8
  %9 = alloca i32, align 4
  store ptr %0, ptr %6, align 8, !tbaa !6
  store i32 %1, ptr %7, align 4, !tbaa !11
  store ptr %2, ptr %8, align 8, !tbaa !6
  store i32 %3, ptr %9, align 4, !tbaa !11
  %10 = load i32, ptr %9, align 4, !tbaa !11
  %11 = load i32, ptr %7, align 4, !tbaa !11
  %12 = icmp ugt i32 %10, %11
  br i1 %12, label %13, label %14

13:                                               ; preds = %4
  call void @ERR_put_error(i32 noundef 4, i32 noundef 0, i32 noundef 114, ptr noundef @.str, i32 noundef 264)
  store i32 0, ptr %5, align 4
  br label %24

14:                                               ; preds = %4
  %15 = load i32, ptr %9, align 4, !tbaa !11
  %16 = load i32, ptr %7, align 4, !tbaa !11
  %17 = icmp ult i32 %15, %16
  br i1 %17, label %18, label %19

18:                                               ; preds = %14
  call void @ERR_put_error(i32 noundef 4, i32 noundef 0, i32 noundef 117, ptr noundef @.str, i32 noundef 269)
  store i32 0, ptr %5, align 4
  br label %24

19:                                               ; preds = %14
  %20 = load ptr, ptr %6, align 8, !tbaa !6
  %21 = load ptr, ptr %8, align 8, !tbaa !6
  %22 = load i32, ptr %9, align 4, !tbaa !11
  %23 = zext i32 %22 to i64
  call void @llvm.memcpy.p0.p0.i64(ptr align 1 %20, ptr align 1 %21, i64 %23, i1 false)
  store i32 1, ptr %5, align 4
  br label %24

24:                                               ; preds = %19, %18, %13
  %25 = load i32, ptr %5, align 4
  ret i32 %25
}