; Function Attrs: nounwind uwtable
define hidden range(i32 0, 2) i32 @RSA_padding_add_none(ptr noundef writeonly captures(none) %0, i32 noundef %1, ptr noundef readonly captures(none) %2, i32 noundef %3) local_unnamed_addr #0 {
  %5 = icmp ugt i32 %3, %1
  br i1 %5, label %6, label %7

6:                                                ; preds = %4
  tail call void @ERR_put_error(i32 noundef 4, i32 noundef 0, i32 noundef 114, ptr noundef nonnull @.str, i32 noundef 264) #8
  br label %12

7:                                                ; preds = %4
  %8 = icmp ult i32 %3, %1
  br i1 %8, label %9, label %10

9:                                                ; preds = %7
  tail call void @ERR_put_error(i32 noundef 4, i32 noundef 0, i32 noundef 117, ptr noundef nonnull @.str, i32 noundef 269) #8
  br label %12

10:                                               ; preds = %7
  %11 = zext i32 %3 to i64
  tail call void @llvm.memcpy.p0.p0.i64(ptr align 1 %0, ptr align 1 %2, i64 %11, i1 false)
  br label %12

12:                                               ; preds = %10, %9, %6
  %.0 = phi i32 [ 0, %6 ], [ 0, %9 ], [ 1, %10 ]
  ret i32 %.0
}